target datalayout = "e-m:e-p270:32:32-p271:32:32-p272:64:64-i64:64-i128:128-f80:128-n8:16:32:64-S128"
target triple = "x86_64-pc-linux-gnu"

%struct._zend_executor_globals = type { %struct._zval_struct, %struct._zval_struct, [32 x ptr], ptr, ptr, %struct._zend_array, %struct._zend_array, ptr, i32, i32, ptr, ptr, ptr, ptr, ptr, ptr, i64, ptr, ptr, i32, i32, i64, i32, i32, i32, i8, i8, %struct.zend_atomic_bool_s, %struct.zend_atomic_bool_s, ptr, i64, ptr, ptr, %struct._zend_array, %struct._zend_array, i32, i8, %struct._zval_struct, %struct._zval_struct, %struct._zend_stack, %struct._zend_stack, %struct._zend_stack, ptr, i32, i32, i64, ptr, ptr, ptr, %struct._zend_objects_store, ptr, ptr, ptr, [3 x %struct._zend_op], ptr, i8, i8, i64, i32, i32, ptr, [16 x %struct._HashTableIterator], ptr, %union._zend_function, %struct._zend_op, %struct._zend_array, i64, %struct.zend_get_gc_buffer, ptr, ptr, ptr, i64, i8, i32, ptr, ptr, i64, %struct._zend_call_stack, i64, i64, [6 x ptr] }
%struct.zend_atomic_bool_s = type { i8 }
%struct._zval_struct = type { %union._zend_value, %union.anon, %union.anon.2 }
%union._zend_value = type { i64 }
%union.anon = type { i32 }
%union.anon.2 = type { i32 }
%struct._zend_stack = type { i32, i32, i32, ptr }
%struct._zend_objects_store = type { ptr, i32, i32, i32 }
%struct._HashTableIterator = type { ptr, i32, i32 }
%union._zend_function = type { %struct._zend_op_array }
%struct._zend_op_array = type { i8, [3 x i8], i32, ptr, ptr, ptr, i32, i32, ptr, ptr, ptr, ptr, i32, i32, i32, i32, ptr, ptr, ptr, ptr, ptr, i32, i32, ptr, ptr, ptr, i32, i32, i32, i32, ptr, ptr, [6 x ptr] }
%struct._zend_op = type { ptr, %union._znode_op, %union._znode_op, %union._znode_op, i32, i32, i8, i8, i8, i8 }
%union._znode_op = type { i32 }
%struct._zend_array = type { %struct._zend_refcounted_h, %union.anon.4, i32, %union.anon.6, i32, i32, i32, i32, i64, ptr }
%struct._zend_refcounted_h = type { i32, %union.anon.3 }
%union.anon.3 = type { i32 }
%union.anon.4 = type { i32 }
%union.anon.6 = type { ptr }
%struct.zend_get_gc_buffer = type { ptr, ptr, ptr }
%struct._zend_call_stack = type { ptr, i64 }
%struct._spl_fixedarray_object = type { %struct._spl_fixedarray, ptr, %struct._zend_object }
%struct._spl_fixedarray = type { i64, ptr, i64 }
%struct._zend_object = type { %struct._zend_refcounted_h, i32, ptr, ptr, ptr, [1 x %struct._zval_struct] }
%struct._zend_class_entry = type { i8, ptr, %union.anon.8, i32, i32, i32, i32, ptr, ptr, ptr, %struct._zend_array, %struct._zend_array, %struct._zend_array, ptr, ptr, ptr, ptr, ptr, ptr, ptr, ptr, ptr, ptr, ptr, ptr, ptr, ptr, ptr, ptr, ptr, ptr, ptr, %union.anon.9, ptr, ptr, ptr, ptr, i32, i32, %union.anon.10, ptr, ptr, ptr, ptr, i32, ptr, ptr, %union.anon.11 }
%union.anon.8 = type { ptr }
%union.anon.9 = type { ptr }
%union.anon.10 = type { ptr }
%union.anon.11 = type { %struct.anon.12 }
%struct.anon.12 = type { ptr, i32, i32 }
%struct._zend_class_arrayaccess_funcs = type { ptr, ptr, ptr, ptr }
%struct.anon.7 = type { i8, [3 x i8], i32, ptr, ptr, ptr, i32, i32, ptr, ptr, ptr, ptr, i32 }

@executor_globals = external global %struct._zend_executor_globals, align 8
@spl_ce_SplFixedArray = global ptr null, align 8
@spl_ce_OutOfBoundsException = external global ptr, align 8
@.str.10 = private unnamed_addr constant [30 x i8] c"Index invalid or out of range\00", align 1

; Function Attrs: nounwind uwtable
define internal void @spl_fixedarray_object_unset_dimension_helper(ptr noundef %0, ptr noundef %1) #0 {
  %3 = alloca ptr, align 8
  %4 = alloca ptr, align 8
  %5 = alloca i64, align 8
  store ptr %0, ptr %3, align 8
  store ptr %1, ptr %4, align 8
  %6 = load ptr, ptr %4, align 8
  %7 = call i64 @spl_offset_convert_to_long(ptr noundef %6)
  store i64 %7, ptr %5, align 8
  %8 = load ptr, ptr getelementptr inbounds (%struct._zend_executor_globals, ptr @executor_globals, i32 0, i32 50), align 8
  %9 = icmp ne ptr %8, null
  br i1 %9, label %10, label %11

10:                                               ; preds = %2
  br label %40

11:                                               ; preds = %2
  %12 = load i64, ptr %5, align 8
  %13 = icmp slt i64 %12, 0
  br i1 %13, label %21, label %14

14:                                               ; preds = %11
  %15 = load i64, ptr %5, align 8
  %16 = load ptr, ptr %3, align 8
  %17 = getelementptr inbounds %struct._spl_fixedarray_object, ptr %16, i32 0, i32 0
  %18 = getelementptr inbounds %struct._spl_fixedarray, ptr %17, i32 0, i32 0
  %19 = load i64, ptr %18, align 8
  %20 = icmp sge i64 %15, %19
  br i1 %20, label %21, label %24

21:                                               ; preds = %14, %11
  %22 = load ptr, ptr @spl_ce_OutOfBoundsException, align 8
  %23 = call ptr @zend_throw_exception(ptr noundef %22, ptr noundef @.str.10, i64 noundef 0)
  br label %40

24:                                               ; preds = %14
  %25 = load ptr, ptr %3, align 8
  %26 = getelementptr inbounds %struct._spl_fixedarray_object, ptr %25, i32 0, i32 0
  %27 = getelementptr inbounds %struct._spl_fixedarray, ptr %26, i32 0, i32 1
  %28 = load ptr, ptr %27, align 8
  %29 = load i64, ptr %5, align 8
  %30 = getelementptr inbounds %struct._zval_struct, ptr %28, i64 %29
  call void @zval_ptr_dtor(ptr noundef %30)
  br label %31

31:                                               ; preds = %24
  %32 = load ptr, ptr %3, align 8
  %33 = getelementptr inbounds %struct._spl_fixedarray_object, ptr %32, i32 0, i32 0
  %34 = getelementptr inbounds %struct._spl_fixedarray, ptr %33, i32 0, i32 1
  %35 = load ptr, ptr %34, align 8
  %36 = load i64, ptr %5, align 8
  %37 = getelementptr inbounds %struct._zval_struct, ptr %35, i64 %36
  %38 = getelementptr inbounds %struct._zval_struct, ptr %37, i32 0, i32 1
  store i32 1, ptr %38, align 8
  br label %39

39:                                               ; preds = %31
  br label %40

40:                                               ; preds = %39, %21, %10
  ret void
}

; Function Attrs: nounwind uwtable
define internal ptr @spl_fixed_array_from_obj(ptr noundef %0) #0 {
  %2 = alloca ptr, align 8
  store ptr %0, ptr %2, align 8
  %3 = load ptr, ptr %2, align 8
  %4 = getelementptr inbounds i8, ptr %3, i64 -32
  ret ptr %4
}

; Function Attrs: nounwind uwtable
define internal void @spl_fixedarray_object_unset_dimension(ptr noundef %0, ptr noundef %1) #0 {
  %3 = alloca ptr, align 8
  %4 = alloca ptr, align 8
  %5 = alloca ptr, align 8
  %6 = alloca i32, align 4
  %7 = alloca ptr, align 8
  %8 = alloca ptr, align 8
  %9 = alloca ptr, align 8
  %10 = alloca ptr, align 8
  %11 = alloca ptr, align 8
  %12 = alloca ptr, align 8
  %13 = alloca ptr, align 8
  %14 = alloca ptr, align 8
  store ptr %0, ptr %12, align 8
  store ptr %1, ptr %13, align 8
  %15 = load ptr, ptr %12, align 8
  %16 = getelementptr inbounds %struct._zend_object, ptr %15, i32 0, i32 2
  %17 = load ptr, ptr %16, align 8
  %18 = load ptr, ptr @spl_ce_SplFixedArray, align 8
  %19 = icmp ne ptr %17, %18
  br i1 %19, label %20, label %32

20:                                               ; preds = %2
  %21 = load ptr, ptr %12, align 8
  %22 = getelementptr inbounds %struct._zend_object, ptr %21, i32 0, i32 2
  %23 = load ptr, ptr %22, align 8
  %24 = getelementptr inbounds %struct._zend_class_entry, ptr %23, i32 0, i32 31
  %25 = load ptr, ptr %24, align 8
  %26 = getelementptr inbounds %struct._zend_class_arrayaccess_funcs, ptr %25, i32 0, i32 3
  %27 = load ptr, ptr %26, align 8
  %28 = getelementptr inbounds %struct.anon.7, ptr %27, i32 0, i32 4
  %29 = load ptr, ptr %28, align 8
  %30 = load ptr, ptr @spl_ce_SplFixedArray, align 8
  %31 = icmp ne ptr %29, %30
  br label %32

32:                                               ; preds = %20, %2
  %33 = phi i1 [ false, %2 ], [ %31, %20 ]
  %34 = xor i1 %33, true
  %35 = xor i1 %34, true
  %36 = zext i1 %35 to i32
  %37 = sext i32 %36 to i64
  %38 = icmp ne i64 %37, 0
  %39 = xor i1 %38, true
  %40 = xor i1 %39, true
  %41 = zext i1 %40 to i32
  %42 = sext i32 %41 to i64
  %43 = icmp ne i64 %42, 0
  br i1 %43, label %44, label %66

44:                                               ; preds = %32
  %45 = load ptr, ptr %12, align 8
  %46 = getelementptr inbounds %struct._zend_object, ptr %45, i32 0, i32 2
  %47 = load ptr, ptr %46, align 8
  %48 = getelementptr inbounds %struct._zend_class_entry, ptr %47, i32 0, i32 31
  %49 = load ptr, ptr %48, align 8
  %50 = getelementptr inbounds %struct._zend_class_arrayaccess_funcs, ptr %49, i32 0, i32 3
  %51 = load ptr, ptr %50, align 8
  %52 = load ptr, ptr %12, align 8
  %53 = load ptr, ptr %13, align 8
  store ptr %51, ptr %8, align 8
  store ptr %52, ptr %9, align 8
  store ptr null, ptr %10, align 8
  store ptr %53, ptr %11, align 8
  %54 = load ptr, ptr %8, align 8
  %55 = load ptr, ptr %9, align 8
  %56 = load ptr, ptr %10, align 8
  %57 = load ptr, ptr %11, align 8
  store ptr %54, ptr %3, align 8
  store ptr %55, ptr %4, align 8
  store ptr %56, ptr %5, align 8
  store i32 1, ptr %6, align 4
  store ptr %57, ptr %7, align 8
  %58 = load ptr, ptr %3, align 8
  %59 = load ptr, ptr %4, align 8
  %60 = load ptr, ptr %4, align 8
  %61 = getelementptr inbounds %struct._zend_object, ptr %60, i32 0, i32 2
  %62 = load ptr, ptr %61, align 8
  %63 = load ptr, ptr %5, align 8
  %64 = load i32, ptr %6, align 4
  %65 = load ptr, ptr %7, align 8
  call void @zend_call_known_function(ptr noundef %58, ptr noundef %59, ptr noundef %62, ptr noundef %63, i32 noundef %64, ptr noundef %65, ptr noundef null) #10
  br label %71

66:                                               ; preds = %32
  %67 = load ptr, ptr %12, align 8
  %68 = call ptr @spl_fixed_array_from_obj(ptr noundef %67)
  store ptr %68, ptr %14, align 8
  %69 = load ptr, ptr %14, align 8
  %70 = load ptr, ptr %13, align 8
  call void @spl_fixedarray_object_unset_dimension_helper(ptr noundef %69, ptr noundef %70)
  br label %71

71:                                               ; preds = %66, %44
  ret void
}