; Function Attrs: nounwind uwtable
define internal void @spl_fixedarray_object_unset_dimension(ptr noundef %0, ptr noundef %1) #0 {
  %3 = getelementptr inbounds i8, ptr %0, i64 16
  %4 = load ptr, ptr %3, align 8
  %5 = load ptr, ptr @spl_ce_SplFixedArray, align 8
  %.not = icmp eq ptr %4, %5
  br i1 %.not, label %.critedge, label %6

6:                                                ; preds = %2
  %7 = getelementptr inbounds i8, ptr %4, i64 376
  %8 = load ptr, ptr %7, align 8
  %9 = getelementptr inbounds i8, ptr %8, i64 24
  %10 = load ptr, ptr %9, align 8
  %11 = getelementptr inbounds i8, ptr %10, i64 16
  %12 = load ptr, ptr %11, align 8
  %.not18 = icmp eq ptr %12, %5
  br i1 %.not18, label %.critedge, label %13

13:                                               ; preds = %6
  tail call void @zend_call_known_function(ptr noundef nonnull %10, ptr noundef nonnull %0, ptr noundef nonnull %4, ptr noundef null, i32 noundef 1, ptr noundef %1, ptr noundef null) #12
  br label %spl_fixedarray_object_unset_dimension_helper.exit

.critedge:                                        ; preds = %2, %6
  %14 = getelementptr inbounds i8, ptr %0, i64 -32
  %15 = tail call fastcc i64 @spl_offset_convert_to_long(ptr noundef %1)
  %16 = load ptr, ptr getelementptr inbounds (%struct._zend_executor_globals, ptr @executor_globals, i64 0, i32 50), align 8
  %.not.i = icmp eq ptr %16, null
  br i1 %.not.i, label %17, label %spl_fixedarray_object_unset_dimension_helper.exit

17:                                               ; preds = %.critedge
  %18 = icmp slt i64 %15, 0
  br i1 %18, label %21, label %19

19:                                               ; preds = %17
  %20 = load i64, ptr %14, align 8
  %.not7.i = icmp slt i64 %15, %20
  br i1 %.not7.i, label %24, label %21

21:                                               ; preds = %19, %17
  %22 = load ptr, ptr @spl_ce_OutOfBoundsException, align 8
  %23 = tail call ptr @zend_throw_exception(ptr noundef %22, ptr noundef nonnull @.str.10, i64 noundef 0) #12
  br label %spl_fixedarray_object_unset_dimension_helper.exit

24:                                               ; preds = %19
  %25 = getelementptr inbounds i8, ptr %0, i64 -24
  %26 = load ptr, ptr %25, align 8
  %27 = getelementptr inbounds %struct._zval_struct, ptr %26, i64 %15
  tail call void @zval_ptr_dtor(ptr noundef %27) #12
  %28 = load ptr, ptr %25, align 8
  %29 = getelementptr inbounds %struct._zval_struct, ptr %28, i64 %15, i32 1
  store i32 1, ptr %29, align 8
  br label %spl_fixedarray_object_unset_dimension_helper.exit

spl_fixedarray_object_unset_dimension_helper.exit: ; preds = %24, %21, %.critedge, %13
  ret void
}